; Function Attrs: mustprogress uwtable
define hidden void @_ZNK4cvc58internal7printer3ast10AstPrinter30toStreamCmdDatatypeDeclarationERSoRKSt6vectorINS0_8TypeNodeESaIS6_EE(ptr nonnull readnone align 8 captures(none) %0, ptr noundef nonnull align 8 dereferenceable(8) %1, ptr noundef nonnull readonly align 8 captures(none) dereferenceable(24) %2) unnamed_addr #3 align 2 personality ptr @__gxx_personality_v0 {
  %4 = alloca %"class.cvc5::internal::options::ioutils::Scope", align 8
  %5 = tail call noundef nonnull align 8 dereferenceable(8) ptr @_ZSt16__ostream_insertIcSt11char_traitsIcEERSt13basic_ostreamIT_T0_ES6_PKS3_l(ptr noundef nonnull align 8 dereferenceable(8) %1, ptr noundef nonnull @.str.47, i64 noundef 34)
  %6 = load ptr, ptr %2, align 8, !tbaa !98
  %7 = getelementptr inbounds nuw i8, ptr %2, i64 8
  %8 = load ptr, ptr %7, align 8, !tbaa !98
  %invariant.gep = getelementptr i8, ptr %1, i64 240
  %.not15 = icmp eq ptr %6, %8
  br i1 %.not15, label %._crit_edge, label %.lr.ph

._crit_edge:                                      ; preds = %_ZSt4endlIcSt11char_traitsIcEERSt13basic_ostreamIT_T0_ES6_.exit11, %3
  %9 = call noundef nonnull align 8 dereferenceable(8) ptr @_ZSt16__ostream_insertIcSt11char_traitsIcEERSt13basic_ostreamIT_T0_ES6_PKS3_l(ptr noundef nonnull align 8 dereferenceable(8) %1, ptr noundef nonnull @.str.49, i64 noundef 2)
  %10 = load ptr, ptr %1, align 8, !tbaa !3
  %11 = getelementptr i8, ptr %10, i64 -24
  %12 = load i64, ptr %11, align 8
  %13 = getelementptr inbounds i8, ptr %1, i64 %12
  %14 = getelementptr inbounds nuw i8, ptr %13, i64 240
  %15 = load ptr, ptr %14, align 8, !tbaa !69
  %.not.i.i.i = icmp eq ptr %15, null
  br i1 %.not.i.i.i, label %16, label %_ZSt13__check_facetISt5ctypeIcEERKT_PS3_.exit.i.i

16:                                               ; preds = %._crit_edge
  call void @_ZSt16__throw_bad_castv() #24
  unreachable

_ZSt13__check_facetISt5ctypeIcEERKT_PS3_.exit.i.i: ; preds = %._crit_edge
  %17 = getelementptr inbounds nuw i8, ptr %15, i64 56
  %18 = load i8, ptr %17, align 8, !tbaa !77
  %.not.i1.i.i = icmp eq i8 %18, 0
  br i1 %.not.i1.i.i, label %22, label %19

19:                                               ; preds = %_ZSt13__check_facetISt5ctypeIcEERKT_PS3_.exit.i.i
  %20 = getelementptr inbounds nuw i8, ptr %15, i64 67
  %21 = load i8, ptr %20, align 1, !tbaa !14
  br label %_ZSt4endlIcSt11char_traitsIcEERSt13basic_ostreamIT_T0_ES6_.exit

22:                                               ; preds = %_ZSt13__check_facetISt5ctypeIcEERKT_PS3_.exit.i.i
  call void @_ZNKSt5ctypeIcE13_M_widen_initEv(ptr noundef nonnull align 8 dereferenceable(570) %15)
  %23 = load ptr, ptr %15, align 8, !tbaa !3
  %24 = getelementptr inbounds nuw i8, ptr %23, i64 48
  %25 = load ptr, ptr %24, align 8
  %26 = call noundef signext i8 %25(ptr noundef nonnull align 8 dereferenceable(570) %15, i8 noundef signext 10)
  br label %_ZSt4endlIcSt11char_traitsIcEERSt13basic_ostreamIT_T0_ES6_.exit

_ZSt4endlIcSt11char_traitsIcEERSt13basic_ostreamIT_T0_ES6_.exit: ; preds = %19, %22
  %.0.i.i.i = phi i8 [ %21, %19 ], [ %26, %22 ]
  %27 = call noundef nonnull align 8 dereferenceable(8) ptr @_ZNSo3putEc(ptr noundef nonnull align 8 dereferenceable(8) %1, i8 noundef signext %.0.i.i.i)
  %28 = call noundef nonnull align 8 dereferenceable(8) ptr @_ZNSo5flushEv(ptr noundef nonnull align 8 dereferenceable(8) %27)
  ret void

.lr.ph:                                           ; preds = %3, %_ZSt4endlIcSt11char_traitsIcEERSt13basic_ostreamIT_T0_ES6_.exit11
  %.sroa.012.016 = phi ptr [ %59, %_ZSt4endlIcSt11char_traitsIcEERSt13basic_ostreamIT_T0_ES6_.exit11 ], [ %6, %3 ]
  call void @llvm.lifetime.start.p0(i64 48, ptr nonnull %4) #21
  %29 = load ptr, ptr %1, align 8, !tbaa !3
  %30 = getelementptr i8, ptr %29, i64 -24
  %31 = load i64, ptr %30, align 8
  %32 = getelementptr inbounds i8, ptr %1, i64 %31
  call void @_ZN4cvc58internal7options7ioutils5ScopeC1ERSt8ios_base(ptr noundef nonnull align 8 dereferenceable(46) %4, ptr noundef nonnull align 8 dereferenceable(216) %32)
  %33 = load ptr, ptr %1, align 8, !tbaa !3
  %34 = getelementptr i8, ptr %33, i64 -24
  %35 = load i64, ptr %34, align 8
  %36 = getelementptr inbounds i8, ptr %1, i64 %35
  invoke void @_ZN4cvc58internal7options7ioutils14applyDagThreshERSt8ios_basel(ptr noundef nonnull align 8 dereferenceable(216) %36, i64 noundef 0)
          to label %37 unwind label %39

37:                                               ; preds = %.lr.ph
  %38 = load ptr, ptr %.sroa.012.016, align 8, !tbaa !83
  invoke void @_ZNK4cvc58internal4expr9NodeValue8toStreamERSo(ptr noundef nonnull align 8 dereferenceable(24) %38, ptr noundef nonnull align 8 dereferenceable(8) %1)
          to label %_ZN4cvc58internallsERSoRKNS0_8TypeNodeE.exit unwind label %39

39:                                               ; preds = %37, %.lr.ph
  %40 = landingpad { ptr, i32 }
          cleanup
  call void @_ZN4cvc58internal7options7ioutils5ScopeD1Ev(ptr noundef nonnull align 8 dereferenceable(46) %4) #21
  call void @llvm.lifetime.end.p0(i64 48, ptr nonnull %4) #21
  resume { ptr, i32 } %40

_ZN4cvc58internallsERSoRKNS0_8TypeNodeE.exit:     ; preds = %37
  call void @_ZN4cvc58internal7options7ioutils5ScopeD1Ev(ptr noundef nonnull align 8 dereferenceable(46) %4) #21
  call void @llvm.lifetime.end.p0(i64 48, ptr nonnull %4) #21
  %41 = call noundef nonnull align 8 dereferenceable(8) ptr @_ZSt16__ostream_insertIcSt11char_traitsIcEERSt13basic_ostreamIT_T0_ES6_PKS3_l(ptr noundef nonnull align 8 dereferenceable(8) %1, ptr noundef nonnull @.str.48, i64 noundef 1)
  %42 = load ptr, ptr %1, align 8, !tbaa !3
  %43 = getelementptr i8, ptr %42, i64 -24
  %44 = load i64, ptr %43, align 8
  %gep = getelementptr i8, ptr %invariant.gep, i64 %44
  %45 = load ptr, ptr %gep, align 8, !tbaa !69
  %.not.i.i.i7 = icmp eq ptr %45, null
  br i1 %.not.i.i.i7, label %46, label %_ZSt13__check_facetISt5ctypeIcEERKT_PS3_.exit.i.i8

46:                                               ; preds = %_ZN4cvc58internallsERSoRKNS0_8TypeNodeE.exit
  call void @_ZSt16__throw_bad_castv() #24
  unreachable

_ZSt13__check_facetISt5ctypeIcEERKT_PS3_.exit.i.i8: ; preds = %_ZN4cvc58internallsERSoRKNS0_8TypeNodeE.exit
  %47 = getelementptr inbounds nuw i8, ptr %45, i64 56
  %48 = load i8, ptr %47, align 8, !tbaa !77
  %.not.i1.i.i9 = icmp eq i8 %48, 0
  br i1 %.not.i1.i.i9, label %52, label %49

49:                                               ; preds = %_ZSt13__check_facetISt5ctypeIcEERKT_PS3_.exit.i.i8
  %50 = getelementptr inbounds nuw i8, ptr %45, i64 67
  %51 = load i8, ptr %50, align 1, !tbaa !14
  br label %_ZSt4endlIcSt11char_traitsIcEERSt13basic_ostreamIT_T0_ES6_.exit11

52:                                               ; preds = %_ZSt13__check_facetISt5ctypeIcEERKT_PS3_.exit.i.i8
  call void @_ZNKSt5ctypeIcE13_M_widen_initEv(ptr noundef nonnull align 8 dereferenceable(570) %45)
  %53 = load ptr, ptr %45, align 8, !tbaa !3
  %54 = getelementptr inbounds nuw i8, ptr %53, i64 48
  %55 = load ptr, ptr %54, align 8
  %56 = call noundef signext i8 %55(ptr noundef nonnull align 8 dereferenceable(570) %45, i8 noundef signext 10)
  br label %_ZSt4endlIcSt11char_traitsIcEERSt13basic_ostreamIT_T0_ES6_.exit11

_ZSt4endlIcSt11char_traitsIcEERSt13basic_ostreamIT_T0_ES6_.exit11: ; preds = %49, %52
  %.0.i.i.i10 = phi i8 [ %51, %49 ], [ %56, %52 ]
  %57 = call noundef nonnull align 8 dereferenceable(8) ptr @_ZNSo3putEc(ptr noundef nonnull align 8 dereferenceable(8) %1, i8 noundef signext %.0.i.i.i10)
  %58 = call noundef nonnull align 8 dereferenceable(8) ptr @_ZNSo5flushEv(ptr noundef nonnull align 8 dereferenceable(8) %57)
  %59 = getelementptr inbounds nuw i8, ptr %.sroa.012.016, i64 8
  %.not = icmp eq ptr %59, %8
  br i1 %.not, label %._crit_edge, label %.lr.ph
}